target datalayout = "e-m:e-p270:32:32-p271:32:32-p272:64:64-i64:64-i128:128-f80:128-n8:16:32:64-S128"
target triple = "x86_64-pc-linux-gnu"

; Function Attrs: nounwind uwtable
define dso_local i64 @Curl_is_absolute_url(ptr noundef %0, ptr noundef %1, i64 noundef %2, i1 noundef zeroext %3) #0 {
  %5 = alloca i64, align 8
  %6 = alloca ptr, align 8
  %7 = alloca ptr, align 8
  %8 = alloca i64, align 8
  %9 = alloca i8, align 1
  %10 = alloca i32, align 4
  %11 = alloca i8, align 1
  %12 = alloca i64, align 8
  store ptr %0, ptr %6, align 8
  store ptr %1, ptr %7, align 8
  store i64 %2, ptr %8, align 8
  %13 = zext i1 %3 to i8
  store i8 %13, ptr %9, align 1
  store i32 0, ptr %10, align 4
  br label %14

14:                                               ; preds = %4
  br label %15

15:                                               ; preds = %14
  %16 = load ptr, ptr %7, align 8
  %17 = icmp ne ptr %16, null
  br i1 %17, label %18, label %21

18:                                               ; preds = %15
  %19 = load ptr, ptr %7, align 8
  %20 = getelementptr inbounds i8, ptr %19, i64 0
  store i8 0, ptr %20, align 1
  br label %21

21:                                               ; preds = %18, %15
  %22 = load ptr, ptr %6, align 8
  %23 = getelementptr inbounds i8, ptr %22, i64 0
  %24 = load i8, ptr %23, align 1
  %25 = sext i8 %24 to i32
  %26 = icmp sge i32 %25, 97
  br i1 %26, label %27, label %33

27:                                               ; preds = %21
  %28 = load ptr, ptr %6, align 8
  %29 = getelementptr inbounds i8, ptr %28, i64 0
  %30 = load i8, ptr %29, align 1
  %31 = sext i8 %30 to i32
  %32 = icmp sle i32 %31, 122
  br i1 %32, label %45, label %33

33:                                               ; preds = %27, %21
  %34 = load ptr, ptr %6, align 8
  %35 = getelementptr inbounds i8, ptr %34, i64 0
  %36 = load i8, ptr %35, align 1
  %37 = sext i8 %36 to i32
  %38 = icmp sge i32 %37, 65
  br i1 %38, label %39, label %101

39:                                               ; preds = %33
  %40 = load ptr, ptr %6, align 8
  %41 = getelementptr inbounds i8, ptr %40, i64 0
  %42 = load i8, ptr %41, align 1
  %43 = sext i8 %42 to i32
  %44 = icmp sle i32 %43, 90
  br i1 %44, label %45, label %101

45:                                               ; preds = %39, %27
  store i32 1, ptr %10, align 4
  br label %46

46:                                               ; preds = %97, %45
  %47 = load i32, ptr %10, align 4
  %48 = icmp slt i32 %47, 40
  br i1 %48, label %49, label %100

49:                                               ; preds = %46
  %50 = load ptr, ptr %6, align 8
  %51 = load i32, ptr %10, align 4
  %52 = sext i32 %51 to i64
  %53 = getelementptr inbounds i8, ptr %50, i64 %52
  %54 = load i8, ptr %53, align 1
  store i8 %54, ptr %11, align 1
  %55 = load i8, ptr %11, align 1
  %56 = sext i8 %55 to i32
  %57 = icmp ne i32 %56, 0
  br i1 %57, label %58, label %95

58:                                               ; preds = %49
  %59 = load i8, ptr %11, align 1
  %60 = sext i8 %59 to i32
  %61 = icmp sge i32 %60, 48
  br i1 %61, label %62, label %66

62:                                               ; preds = %58
  %63 = load i8, ptr %11, align 1
  %64 = sext i8 %63 to i32
  %65 = icmp sle i32 %64, 57
  br i1 %65, label %94, label %66

66:                                               ; preds = %62, %58
  %67 = load i8, ptr %11, align 1
  %68 = sext i8 %67 to i32
  %69 = icmp sge i32 %68, 97
  br i1 %69, label %70, label %74

70:                                               ; preds = %66
  %71 = load i8, ptr %11, align 1
  %72 = sext i8 %71 to i32
  %73 = icmp sle i32 %72, 122
  br i1 %73, label %94, label %74

74:                                               ; preds = %70, %66
  %75 = load i8, ptr %11, align 1
  %76 = sext i8 %75 to i32
  %77 = icmp sge i32 %76, 65
  br i1 %77, label %78, label %82

78:                                               ; preds = %74
  %79 = load i8, ptr %11, align 1
  %80 = sext i8 %79 to i32
  %81 = icmp sle i32 %80, 90
  br i1 %81, label %94, label %82

82:                                               ; preds = %78, %74
  %83 = load i8, ptr %11, align 1
  %84 = sext i8 %83 to i32
  %85 = icmp eq i32 %84, 43
  br i1 %85, label %94, label %86

86:                                               ; preds = %82
  %87 = load i8, ptr %11, align 1
  %88 = sext i8 %87 to i32
  %89 = icmp eq i32 %88, 45
  br i1 %89, label %94, label %90

90:                                               ; preds = %86
  %91 = load i8, ptr %11, align 1
  %92 = sext i8 %91 to i32
  %93 = icmp eq i32 %92, 46
  br i1 %93, label %94, label %95

94:                                               ; preds = %90, %86, %82, %78, %70, %62
  br label %96

95:                                               ; preds = %90, %49
  br label %100

96:                                               ; preds = %94
  br label %97

97:                                               ; preds = %96
  %98 = load i32, ptr %10, align 4
  %99 = add nsw i32 %98, 1
  store i32 %99, ptr %10, align 4
  br label %46, !llvm.loop !5

100:                                              ; preds = %95, %46
  br label %101

101:                                              ; preds = %100, %39, %33
  %102 = load i32, ptr %10, align 4
  %103 = icmp ne i32 %102, 0
  br i1 %103, label %104, label %152

104:                                              ; preds = %101
  %105 = load ptr, ptr %6, align 8
  %106 = load i32, ptr %10, align 4
  %107 = sext i32 %106 to i64
  %108 = getelementptr inbounds i8, ptr %105, i64 %107
  %109 = load i8, ptr %108, align 1
  %110 = sext i8 %109 to i32
  %111 = icmp eq i32 %110, 58
  br i1 %111, label %112, label %152

112:                                              ; preds = %104
  %113 = load ptr, ptr %6, align 8
  %114 = load i32, ptr %10, align 4
  %115 = add nsw i32 %114, 1
  %116 = sext i32 %115 to i64
  %117 = getelementptr inbounds i8, ptr %113, i64 %116
  %118 = load i8, ptr %117, align 1
  %119 = sext i8 %118 to i32
  %120 = icmp eq i32 %119, 47
  br i1 %120, label %124, label %121

121:                                              ; preds = %112
  %122 = load i8, ptr %9, align 1
  %123 = trunc i8 %122 to i1
  br i1 %123, label %152, label %124

124:                                              ; preds = %121, %112
  %125 = load i32, ptr %10, align 4
  %126 = sext i32 %125 to i64
  store i64 %126, ptr %12, align 8
  %127 = load ptr, ptr %7, align 8
  %128 = icmp ne ptr %127, null
  br i1 %128, label %129, label %150

129:                                              ; preds = %124
  %130 = load ptr, ptr %7, align 8
  %131 = load i32, ptr %10, align 4
  %132 = sext i32 %131 to i64
  %133 = getelementptr inbounds i8, ptr %130, i64 %132
  store i8 0, ptr %133, align 1
  br label %134

134:                                              ; preds = %138, %129
  %135 = load i32, ptr %10, align 4
  %136 = add nsw i32 %135, -1
  store i32 %136, ptr %10, align 4
  %137 = icmp ne i32 %135, 0
  br i1 %137, label %138, label %149

138:                                              ; preds = %134
  %139 = load ptr, ptr %6, align 8
  %140 = load i32, ptr %10, align 4
  %141 = sext i32 %140 to i64
  %142 = getelementptr inbounds i8, ptr %139, i64 %141
  %143 = load i8, ptr %142, align 1
  %144 = call signext i8 @Curl_raw_tolower(i8 noundef signext %143)
  %145 = load ptr, ptr %7, align 8
  %146 = load i32, ptr %10, align 4
  %147 = sext i32 %146 to i64
  %148 = getelementptr inbounds i8, ptr %145, i64 %147
  store i8 %144, ptr %148, align 1
  br label %134, !llvm.loop !7

149:                                              ; preds = %134
  br label %150

150:                                              ; preds = %149, %124
  %151 = load i64, ptr %12, align 8
  store i64 %151, ptr %5, align 8
  br label %153

152:                                              ; preds = %121, %104, %101
  store i64 0, ptr %5, align 8
  br label %153

153:                                              ; preds = %152, %150
  %154 = load i64, ptr %5, align 8
  ret i64 %154
}