; Function Attrs: nounwind uwtable
define dso_local range(i64 -2147483648, 2147483648) i64 @Curl_is_absolute_url(ptr noundef readonly captures(none) %0, ptr noundef writeonly %1, i64 %2, i1 noundef zeroext %3) local_unnamed_addr #0 {
  %.not = icmp eq ptr %1, null
  br i1 %.not, label %6, label %5

5:                                                ; preds = %4
  store i8 0, ptr %1, align 1
  br label %6

6:                                                ; preds = %5, %4
  %7 = load i8, ptr %0, align 1
  %8 = and i8 %7, -33
  %9 = add i8 %8, -65
  %or.cond73 = icmp ult i8 %9, 26
  br i1 %or.cond73, label %.preheader, label %.loopexit

.preheader:                                       ; preds = %6, %17
  %indvars.iv = phi i64 [ %indvars.iv.next, %17 ], [ 1, %6 ]
  %10 = getelementptr inbounds nuw i8, ptr %0, i64 %indvars.iv
  %11 = load i8, ptr %10, align 1
  %.fr70 = freeze i8 %11
  %.not59 = icmp eq i8 %.fr70, 0
  br i1 %.not59, label %18, label %12

12:                                               ; preds = %.preheader
  %13 = add i8 %.fr70, -48
  %or.cond = icmp ult i8 %13, 10
  %14 = and i8 %.fr70, -33
  %15 = add i8 %14, -65
  %16 = icmp ult i8 %15, 26
  %or.cond74 = or i1 %or.cond, %16
  br i1 %or.cond74, label %17, label %switch.early.test

switch.early.test:                                ; preds = %12
  switch i8 %.fr70, label %18 [
    i8 46, label %17
    i8 45, label %17
    i8 43, label %17
  ]

17:                                               ; preds = %switch.early.test, %switch.early.test, %switch.early.test, %12
  %indvars.iv.next = add nuw nsw i64 %indvars.iv, 1
  %exitcond.not = icmp eq i64 %indvars.iv.next, 40
  br i1 %exitcond.not, label %18, label %.preheader, !llvm.loop !5

18:                                               ; preds = %switch.early.test, %.preheader, %17
  %.1.lcssa = phi i64 [ %indvars.iv, %switch.early.test ], [ %indvars.iv, %.preheader ], [ 40, %17 ]
  %19 = and i64 %.1.lcssa, 4294967295
  %20 = getelementptr inbounds nuw i8, ptr %0, i64 %19
  %21 = load i8, ptr %20, align 1
  %22 = icmp eq i8 %21, 58
  br i1 %22, label %23, label %.loopexit

23:                                               ; preds = %18
  %24 = getelementptr inbounds nuw i8, ptr %20, i64 1
  %25 = load i8, ptr %24, align 1
  %26 = icmp ne i8 %25, 47
  %brmerge.not72 = and i1 %3, %26
  %brmerge66 = or i1 %.not, %brmerge.not72
  %.mux = select i1 %brmerge.not72, i64 0, i64 %19
  br i1 %brmerge66, label %.loopexit, label %27

27:                                               ; preds = %23
  %28 = getelementptr inbounds nuw i8, ptr %1, i64 %19
  store i8 0, ptr %28, align 1
  br label %29

29:                                               ; preds = %27, %29
  %indvars.iv78 = phi i64 [ %19, %27 ], [ %indvars.iv.next79, %29 ]
  %indvars.iv.next79 = add nsw i64 %indvars.iv78, -1
  %30 = getelementptr inbounds i8, ptr %0, i64 %indvars.iv.next79
  %31 = load i8, ptr %30, align 1
  %32 = tail call signext i8 @Curl_raw_tolower(i8 noundef signext %31) #10
  %33 = getelementptr inbounds i8, ptr %1, i64 %indvars.iv.next79
  store i8 %32, ptr %33, align 1
  %34 = icmp eq i64 %indvars.iv.next79, 0
  br i1 %34, label %.loopexit, label %29, !llvm.loop !7

.loopexit:                                        ; preds = %29, %6, %23, %18
  %.0 = phi i64 [ %.mux, %23 ], [ 0, %18 ], [ 0, %6 ], [ %19, %29 ]
  ret i64 %.0
}